target datalayout = "e-m:e-p270:32:32-p271:32:32-p272:64:64-i64:64-i128:128-f80:128-n8:16:32:64-S128"
target triple = "x86_64-unknown-linux-gnu"

%struct.QemuMutex = type { %union.pthread_mutex_t, i8 }
%union.pthread_mutex_t = type { %struct.__pthread_mutex_s }
%struct.__pthread_mutex_s = type { i32, i32, i32, i32, i32, i16, i16, %struct.__pthread_internal_list }
%struct.__pthread_internal_list = type { ptr, ptr }
%struct.MigrationIncomingState = type { ptr, [2 x ptr], ptr, ptr, %struct.QemuSemaphore, %struct.QemuEvent, %struct.AnnounceTimer, i64, i8, %struct.QemuThread, i8, i8, %struct.QemuThread, i32, i32, ptr, %struct.QemuMutex, ptr, i32, ptr, %struct.QemuSemaphore, %struct.QemuThread, i32, %struct.QemuMutex, ptr, ptr, ptr, ptr, i32, ptr, ptr, %struct.QemuSemaphore, ptr, %struct.QemuSemaphore, %struct.QemuSemaphore, %struct.QemuSemaphore, ptr, ptr, i32, %struct.QemuMutex, %struct.QemuCond, i32 }
%struct.QemuEvent = type { i32, i8 }
%struct.AnnounceTimer = type { ptr, %struct.AnnounceParameters, i32, i32 }
%struct.AnnounceParameters = type { i64, i64, i64, i64, i8, ptr, ptr }
%struct.QemuThread = type { i64 }
%struct.QemuSemaphore = type { %struct.QemuMutex, %struct.QemuCond, i32 }
%struct.QemuCond = type { %union.pthread_cond_t, i8 }
%union.pthread_cond_t = type { %struct.__pthread_cond_s }
%struct.__pthread_cond_s = type { %union.__atomic_wide_counter, %union.__atomic_wide_counter, [2 x i32], [2 x i32], i32, i32, [2 x i32] }
%union.__atomic_wide_counter = type { i64 }
%struct.PostCopyFD = type { i32, ptr, ptr, ptr, ptr }
%struct._GArray = type { ptr, i32 }

; Function Attrs: nounwind sspstrong uwtable
define dso_local void @postcopy_unregister_shared_ufd(ptr noundef %pcfd) #0 {
entry:
  %pcfd.addr = alloca ptr, align 8
  %i = alloca i32, align 4
  %mis = alloca ptr, align 8
  %pcrfds = alloca ptr, align 8
  %cur = alloca ptr, align 8
  store ptr %pcfd, ptr %pcfd.addr, align 8
  %call = call ptr @migration_incoming_get_current()
  store ptr %call, ptr %mis, align 8
  %0 = load ptr, ptr %mis, align 8
  %postcopy_remote_fds = getelementptr inbounds %struct.MigrationIncomingState, ptr %0, i32 0, i32 26
  %1 = load ptr, ptr %postcopy_remote_fds, align 8
  store ptr %1, ptr %pcrfds, align 8
  %2 = load ptr, ptr %pcrfds, align 8
  %tobool = icmp ne ptr %2, null
  br i1 %tobool, label %if.end, label %if.then

if.then:                                          ; preds = %entry
  br label %for.end

if.end:                                           ; preds = %entry
  store i32 0, ptr %i, align 4
  br label %for.cond

for.cond:                                         ; preds = %for.inc, %if.end
  %3 = load i32, ptr %i, align 4
  %4 = load ptr, ptr %pcrfds, align 8
  %len = getelementptr inbounds %struct._GArray, ptr %4, i32 0, i32 1
  %5 = load i32, ptr %len, align 8
  %cmp = icmp ult i32 %3, %5
  br i1 %cmp, label %for.body, label %for.end

for.body:                                         ; preds = %for.cond
  %6 = load ptr, ptr %pcrfds, align 8
  %data = getelementptr inbounds %struct._GArray, ptr %6, i32 0, i32 0
  %7 = load ptr, ptr %data, align 8
  %8 = load i32, ptr %i, align 4
  %idxprom = zext i32 %8 to i64
  %arrayidx = getelementptr %struct.PostCopyFD, ptr %7, i64 %idxprom
  store ptr %arrayidx, ptr %cur, align 8
  %9 = load ptr, ptr %cur, align 8
  %fd = getelementptr inbounds %struct.PostCopyFD, ptr %9, i32 0, i32 0
  %10 = load i32, ptr %fd, align 8
  %11 = load ptr, ptr %pcfd.addr, align 8
  %fd1 = getelementptr inbounds %struct.PostCopyFD, ptr %11, i32 0, i32 0
  %12 = load i32, ptr %fd1, align 8
  %cmp2 = icmp eq i32 %10, %12
  br i1 %cmp2, label %if.then3, label %if.end6

if.then3:                                         ; preds = %for.body
  %13 = load ptr, ptr %pcrfds, align 8
  %14 = load i32, ptr %i, align 4
  %call4 = call ptr @g_array_remove_index(ptr noundef %13, i32 noundef %14)
  %15 = load ptr, ptr %mis, align 8
  %postcopy_remote_fds5 = getelementptr inbounds %struct.MigrationIncomingState, ptr %15, i32 0, i32 26
  store ptr %call4, ptr %postcopy_remote_fds5, align 8
  br label %for.end

if.end6:                                          ; preds = %for.body
  br label %for.inc

for.inc:                                          ; preds = %if.end6
  %16 = load i32, ptr %i, align 4
  %inc = add i32 %16, 1
  store i32 %inc, ptr %i, align 4
  br label %for.cond, !llvm.loop !19

for.end:                                          ; preds = %if.then3, %for.cond, %if.then
  ret void
}