; Function Attrs: nounwind sspstrong uwtable
define dso_local void @postcopy_unregister_shared_ufd(ptr noundef readonly captures(none) %pcfd) local_unnamed_addr #0 {
entry:
  %call = tail call ptr @migration_incoming_get_current() #16
  %postcopy_remote_fds = getelementptr inbounds nuw i8, ptr %call, i64 552
  %0 = load ptr, ptr %postcopy_remote_fds, align 8
  %tobool.not = icmp eq ptr %0, null
  br i1 %tobool.not, label %for.end, label %for.cond.preheader

for.cond.preheader:                               ; preds = %entry
  %len = getelementptr inbounds nuw i8, ptr %0, i64 8
  %1 = load i32, ptr %len, align 8
  %cmp9.not = icmp eq i32 %1, 0
  br i1 %cmp9.not, label %for.end, label %for.body.lr.ph

for.body.lr.ph:                                   ; preds = %for.cond.preheader
  %2 = load ptr, ptr %0, align 8
  %3 = load i32, ptr %pcfd, align 8
  %wide.trip.count = zext i32 %1 to i64
  br label %for.body

for.body:                                         ; preds = %for.body.lr.ph, %for.inc
  %indvars.iv = phi i64 [ 0, %for.body.lr.ph ], [ %indvars.iv.next, %for.inc ]
  %arrayidx = getelementptr %struct.PostCopyFD, ptr %2, i64 %indvars.iv
  %4 = load i32, ptr %arrayidx, align 8
  %cmp2 = icmp eq i32 %4, %3
  br i1 %cmp2, label %if.then3, label %for.inc

if.then3:                                         ; preds = %for.body
  %5 = trunc nuw i64 %indvars.iv to i32
  %call4 = tail call ptr @g_array_remove_index(ptr noundef nonnull %0, i32 noundef %5) #16
  store ptr %call4, ptr %postcopy_remote_fds, align 8
  br label %for.end

for.inc:                                          ; preds = %for.body
  %indvars.iv.next = add nuw nsw i64 %indvars.iv, 1
  %exitcond.not = icmp eq i64 %indvars.iv.next, %wide.trip.count
  br i1 %exitcond.not, label %for.end, label %for.body, !llvm.loop !22

for.end:                                          ; preds = %for.inc, %for.cond.preheader, %entry, %if.then3
  ret void
}